; Function Attrs: inlinehint mustprogress nounwind uwtable
define internal fastcc void @_ZZN12_GLOBAL__N_112WrapcellPass7executeESt6vectorINSt7__cxx1112basic_stringIcSt11char_traitsIcESaIcEEESaIS7_EEPN5Yosys5RTLIL6DesignEEN8AttrRuleD2Ev(ptr noundef nonnull readonly align 8 captures(address) dereferenceable(40) %0) unnamed_addr #4 align 2 personality ptr @__gxx_personality_v0 {
  %2 = getelementptr inbounds nuw i8, ptr %0, i64 8
  %3 = load ptr, ptr %2, align 8, !tbaa !23
  %4 = getelementptr inbounds nuw i8, ptr %0, i64 24
  %5 = icmp eq ptr %3, %4
  br i1 %5, label %_ZNKSt7__cxx1112basic_stringIcSt11char_traitsIcESaIcEE11_M_is_localEv.exit.thread.i.i, label %_ZNKSt7__cxx1112basic_stringIcSt11char_traitsIcESaIcEE11_M_is_localEv.exit.i.i

_ZNKSt7__cxx1112basic_stringIcSt11char_traitsIcESaIcEE11_M_is_localEv.exit.thread.i.i: ; preds = %1
  %6 = getelementptr inbounds nuw i8, ptr %0, i64 16
  %7 = load i64, ptr %6, align 8, !tbaa !12
  %8 = icmp ult i64 %7, 16
  tail call void @llvm.assume(i1 %8)
  br label %_ZNSt7__cxx1112basic_stringIcSt11char_traitsIcESaIcEED2Ev.exit

_ZNKSt7__cxx1112basic_stringIcSt11char_traitsIcESaIcEE11_M_is_localEv.exit.i.i: ; preds = %1
  %9 = load i64, ptr %4, align 8, !tbaa !15
  %10 = add i64 %9, 1
  tail call void @_ZdlPvm(ptr noundef %3, i64 noundef %10) #30
  br label %_ZNSt7__cxx1112basic_stringIcSt11char_traitsIcESaIcEED2Ev.exit

_ZNSt7__cxx1112basic_stringIcSt11char_traitsIcESaIcEED2Ev.exit: ; preds = %_ZNKSt7__cxx1112basic_stringIcSt11char_traitsIcESaIcEE11_M_is_localEv.exit.thread.i.i, %_ZNKSt7__cxx1112basic_stringIcSt11char_traitsIcESaIcEE11_M_is_localEv.exit.i.i
  %11 = load i32, ptr %0, align 8, !tbaa !30
  %12 = load i8, ptr @_ZN5Yosys5RTLIL8IdString17destruct_guard_okE, align 1, !tbaa !32, !range !34, !noundef !35
  %13 = trunc nuw i8 %12 to i1
  %14 = icmp ne i32 %11, 0
  %or.cond.i.i = and i1 %14, %13
  br i1 %or.cond.i.i, label %15, label %_ZN5Yosys5RTLIL8IdStringD2Ev.exit

15:                                               ; preds = %_ZNSt7__cxx1112basic_stringIcSt11char_traitsIcESaIcEED2Ev.exit
  %16 = sext i32 %11 to i64
  %17 = load ptr, ptr @_ZN5Yosys5RTLIL8IdString24global_refcount_storage_E, align 8, !tbaa !25
  %18 = getelementptr inbounds nuw i32, ptr %17, i64 %16
  %19 = load i32, ptr %18, align 4, !tbaa !28
  %20 = add nsw i32 %19, -1
  store i32 %20, ptr %18, align 4, !tbaa !28
  %21 = icmp sgt i32 %19, 1
  br i1 %21, label %_ZN5Yosys5RTLIL8IdStringD2Ev.exit, label %22

22:                                               ; preds = %15
  invoke void @_ZN5Yosys5RTLIL8IdString14free_referenceEi(i32 noundef %11)
          to label %_ZN5Yosys5RTLIL8IdStringD2Ev.exit unwind label %23

23:                                               ; preds = %22
  %24 = landingpad { ptr, i32 }
          catch ptr null
  %25 = extractvalue { ptr, i32 } %24, 0
  tail call void @__clang_call_terminate(ptr %25) #31
  unreachable

_ZN5Yosys5RTLIL8IdStringD2Ev.exit:                ; preds = %_ZNSt7__cxx1112basic_stringIcSt11char_traitsIcESaIcEED2Ev.exit, %15, %22
  ret void
}